target datalayout = "e-m:e-p270:32:32-p271:32:32-p272:64:64-i64:64-i128:128-f80:128-n8:16:32:64-S128"
target triple = "x86_64-pc-linux-gnu"

%struct.AVChannelLayout = type { i32, i32, %union.anon.1, ptr }
%union.anon.1 = type { i64 }
%struct.AVRational = type { i32, i32 }
%struct.AVFrame = type { [8 x ptr], [8 x i32], ptr, i32, i32, i32, i32, i32, %struct.AVRational, i64, i64, %struct.AVRational, i32, ptr, i32, i32, [8 x ptr], ptr, i32, ptr, i32, i32, i32, i32, i32, i32, i32, i64, ptr, i32, ptr, ptr, i64, i64, i64, i64, ptr, %struct.AVChannelLayout, i64 }

; Function Attrs: nounwind uwtable
define internal i32 @deshake_transform_c(ptr noundef %0, i32 noundef %1, i32 noundef %2, i32 noundef %3, i32 noundef %4, ptr noundef %5, ptr noundef %6, i32 noundef %7, i32 noundef %8, ptr noundef %9, ptr noundef %10) #1 {
  %12 = alloca i32, align 4
  %13 = alloca ptr, align 8
  %14 = alloca i32, align 4
  %15 = alloca i32, align 4
  %16 = alloca i32, align 4
  %17 = alloca i32, align 4
  %18 = alloca ptr, align 8
  %19 = alloca ptr, align 8
  %20 = alloca i32, align 4
  %21 = alloca i32, align 4
  %22 = alloca ptr, align 8
  %23 = alloca ptr, align 8
  %24 = alloca i32, align 4
  %25 = alloca i32, align 4
  %26 = alloca [3 x ptr], align 16
  %27 = alloca [3 x i32], align 4
  %28 = alloca [3 x i32], align 4
  %29 = alloca i32, align 4
  store ptr %0, ptr %13, align 8, !tbaa !4
  store i32 %1, ptr %14, align 4, !tbaa !59
  store i32 %2, ptr %15, align 4, !tbaa !59
  store i32 %3, ptr %16, align 4, !tbaa !59
  store i32 %4, ptr %17, align 4, !tbaa !59
  store ptr %5, ptr %18, align 8, !tbaa !118
  store ptr %6, ptr %19, align 8, !tbaa !118
  store i32 %7, ptr %20, align 4, !tbaa !59
  store i32 %8, ptr %21, align 4, !tbaa !59
  store ptr %9, ptr %22, align 8, !tbaa !47
  store ptr %10, ptr %23, align 8, !tbaa !47
  call void @llvm.lifetime.start.p0(i64 4, ptr %24) #10
  store i32 0, ptr %24, align 4, !tbaa !59
  call void @llvm.lifetime.start.p0(i64 4, ptr %25) #10
  store i32 0, ptr %25, align 4, !tbaa !59
  call void @llvm.lifetime.start.p0(i64 24, ptr %26) #10
  call void @llvm.lifetime.start.p0(i64 12, ptr %27) #10
  call void @llvm.lifetime.start.p0(i64 12, ptr %28) #10
  %30 = load ptr, ptr %18, align 8, !tbaa !118
  %31 = getelementptr inbounds [3 x ptr], ptr %26, i64 0, i64 0
  store ptr %30, ptr %31, align 16, !tbaa !118
  %32 = load ptr, ptr %19, align 8, !tbaa !118
  %33 = getelementptr inbounds [3 x ptr], ptr %26, i64 0, i64 2
  store ptr %32, ptr %33, align 16, !tbaa !118
  %34 = getelementptr inbounds [3 x ptr], ptr %26, i64 0, i64 1
  store ptr %32, ptr %34, align 8, !tbaa !118
  %35 = load i32, ptr %14, align 4, !tbaa !59
  %36 = getelementptr inbounds [3 x i32], ptr %27, i64 0, i64 0
  store i32 %35, ptr %36, align 4, !tbaa !59
  %37 = load i32, ptr %16, align 4, !tbaa !59
  %38 = getelementptr inbounds [3 x i32], ptr %27, i64 0, i64 2
  store i32 %37, ptr %38, align 4, !tbaa !59
  %39 = getelementptr inbounds [3 x i32], ptr %27, i64 0, i64 1
  store i32 %37, ptr %39, align 4, !tbaa !59
  %40 = load i32, ptr %15, align 4, !tbaa !59
  %41 = getelementptr inbounds [3 x i32], ptr %28, i64 0, i64 0
  store i32 %40, ptr %41, align 4, !tbaa !59
  %42 = load i32, ptr %17, align 4, !tbaa !59
  %43 = getelementptr inbounds [3 x i32], ptr %28, i64 0, i64 2
  store i32 %42, ptr %43, align 4, !tbaa !59
  %44 = getelementptr inbounds [3 x i32], ptr %28, i64 0, i64 1
  store i32 %42, ptr %44, align 4, !tbaa !59
  store i32 0, ptr %24, align 4, !tbaa !59
  br label %45

45:                                               ; preds = %93, %11
  %46 = load i32, ptr %24, align 4, !tbaa !59
  %47 = icmp slt i32 %46, 3
  br i1 %47, label %48, label %96

48:                                               ; preds = %45
  %49 = load ptr, ptr %22, align 8, !tbaa !47
  %50 = getelementptr inbounds nuw %struct.AVFrame, ptr %49, i32 0, i32 0
  %51 = load i32, ptr %24, align 4, !tbaa !59
  %52 = sext i32 %51 to i64
  %53 = getelementptr inbounds [8 x ptr], ptr %50, i64 0, i64 %52
  %54 = load ptr, ptr %53, align 8, !tbaa !69
  %55 = load ptr, ptr %23, align 8, !tbaa !47
  %56 = getelementptr inbounds nuw %struct.AVFrame, ptr %55, i32 0, i32 0
  %57 = load i32, ptr %24, align 4, !tbaa !59
  %58 = sext i32 %57 to i64
  %59 = getelementptr inbounds [8 x ptr], ptr %56, i64 0, i64 %58
  %60 = load ptr, ptr %59, align 8, !tbaa !69
  %61 = load ptr, ptr %22, align 8, !tbaa !47
  %62 = getelementptr inbounds nuw %struct.AVFrame, ptr %61, i32 0, i32 1
  %63 = load i32, ptr %24, align 4, !tbaa !59
  %64 = sext i32 %63 to i64
  %65 = getelementptr inbounds [8 x i32], ptr %62, i64 0, i64 %64
  %66 = load i32, ptr %65, align 4, !tbaa !59
  %67 = load ptr, ptr %23, align 8, !tbaa !47
  %68 = getelementptr inbounds nuw %struct.AVFrame, ptr %67, i32 0, i32 1
  %69 = load i32, ptr %24, align 4, !tbaa !59
  %70 = sext i32 %69 to i64
  %71 = getelementptr inbounds [8 x i32], ptr %68, i64 0, i64 %70
  %72 = load i32, ptr %71, align 4, !tbaa !59
  %73 = load i32, ptr %24, align 4, !tbaa !59
  %74 = sext i32 %73 to i64
  %75 = getelementptr inbounds [3 x i32], ptr %27, i64 0, i64 %74
  %76 = load i32, ptr %75, align 4, !tbaa !59
  %77 = load i32, ptr %24, align 4, !tbaa !59
  %78 = sext i32 %77 to i64
  %79 = getelementptr inbounds [3 x i32], ptr %28, i64 0, i64 %78
  %80 = load i32, ptr %79, align 4, !tbaa !59
  %81 = load i32, ptr %24, align 4, !tbaa !59
  %82 = sext i32 %81 to i64
  %83 = getelementptr inbounds [3 x ptr], ptr %26, i64 0, i64 %82
  %84 = load ptr, ptr %83, align 8, !tbaa !118
  %85 = load i32, ptr %20, align 4, !tbaa !59
  %86 = load i32, ptr %21, align 4, !tbaa !59
  %87 = call i32 @ff_affine_transform(ptr noundef %54, ptr noundef %60, i32 noundef %66, i32 noundef %72, i32 noundef %76, i32 noundef %80, ptr noundef %84, i32 noundef %85, i32 noundef %86)
  store i32 %87, ptr %25, align 4, !tbaa !59
  %88 = load i32, ptr %25, align 4, !tbaa !59
  %89 = icmp slt i32 %88, 0
  br i1 %89, label %90, label %92

90:                                               ; preds = %48
  %91 = load i32, ptr %25, align 4, !tbaa !59
  store i32 %91, ptr %12, align 4
  store i32 1, ptr %29, align 4
  br label %98

92:                                               ; preds = %48
  br label %93

93:                                               ; preds = %92
  %94 = load i32, ptr %24, align 4, !tbaa !59
  %95 = add nsw i32 %94, 1
  store i32 %95, ptr %24, align 4, !tbaa !59
  br label %45, !llvm.loop !120

96:                                               ; preds = %45
  %97 = load i32, ptr %25, align 4, !tbaa !59
  store i32 %97, ptr %12, align 4
  store i32 1, ptr %29, align 4
  br label %98

98:                                               ; preds = %96, %90
  call void @llvm.lifetime.end.p0(i64 12, ptr %28) #10
  call void @llvm.lifetime.end.p0(i64 12, ptr %27) #10
  call void @llvm.lifetime.end.p0(i64 24, ptr %26) #10
  call void @llvm.lifetime.end.p0(i64 4, ptr %25) #10
  call void @llvm.lifetime.end.p0(i64 4, ptr %24) #10
  %99 = load i32, ptr %12, align 4
  ret i32 %99
}