; Function Attrs: nounwind uwtable
define internal i32 @deshake_transform_c(ptr readnone captures(none) %0, i32 noundef %1, i32 noundef %2, i32 noundef %3, i32 noundef %4, ptr noundef %5, ptr noundef %6, i32 noundef %7, i32 noundef %8, ptr noundef readonly captures(none) %9, ptr noundef readonly captures(none) %10) #1 {
  %12 = alloca [3 x ptr], align 16
  %13 = alloca [3 x i32], align 4
  %14 = alloca [3 x i32], align 4
  call void @llvm.lifetime.start.p0(i64 24, ptr nonnull %12) #10
  call void @llvm.lifetime.start.p0(i64 12, ptr nonnull %13) #10
  call void @llvm.lifetime.start.p0(i64 12, ptr nonnull %14) #10
  store ptr %5, ptr %12, align 16, !tbaa !102
  %15 = getelementptr inbounds nuw i8, ptr %12, i64 16
  store ptr %6, ptr %15, align 16, !tbaa !102
  %16 = getelementptr inbounds nuw i8, ptr %12, i64 8
  store ptr %6, ptr %16, align 8, !tbaa !102
  store i32 %1, ptr %13, align 4, !tbaa !62
  %17 = getelementptr inbounds nuw i8, ptr %13, i64 8
  store i32 %3, ptr %17, align 4, !tbaa !62
  %18 = getelementptr inbounds nuw i8, ptr %13, i64 4
  store i32 %3, ptr %18, align 4, !tbaa !62
  store i32 %2, ptr %14, align 4, !tbaa !62
  %19 = getelementptr inbounds nuw i8, ptr %14, i64 8
  store i32 %4, ptr %19, align 4, !tbaa !62
  %20 = getelementptr inbounds nuw i8, ptr %14, i64 4
  store i32 %4, ptr %20, align 4, !tbaa !62
  %21 = getelementptr inbounds nuw i8, ptr %9, i64 64
  %22 = getelementptr inbounds nuw i8, ptr %10, i64 64
  br label %23

23:                                               ; preds = %23, %11
  %indvars.iv = phi i64 [ 0, %11 ], [ %indvars.iv.next, %23 ]
  %24 = getelementptr inbounds nuw [8 x ptr], ptr %9, i64 0, i64 %indvars.iv
  %25 = load ptr, ptr %24, align 8, !tbaa !61
  %26 = getelementptr inbounds nuw [8 x ptr], ptr %10, i64 0, i64 %indvars.iv
  %27 = load ptr, ptr %26, align 8, !tbaa !61
  %28 = getelementptr inbounds nuw [8 x i32], ptr %21, i64 0, i64 %indvars.iv
  %29 = load i32, ptr %28, align 4, !tbaa !62
  %30 = getelementptr inbounds nuw [8 x i32], ptr %22, i64 0, i64 %indvars.iv
  %31 = load i32, ptr %30, align 4, !tbaa !62
  %32 = getelementptr inbounds nuw [3 x i32], ptr %13, i64 0, i64 %indvars.iv
  %33 = load i32, ptr %32, align 4, !tbaa !62
  %34 = getelementptr inbounds nuw [3 x i32], ptr %14, i64 0, i64 %indvars.iv
  %35 = load i32, ptr %34, align 4, !tbaa !62
  %36 = getelementptr inbounds nuw [3 x ptr], ptr %12, i64 0, i64 %indvars.iv
  %37 = load ptr, ptr %36, align 8, !tbaa !102
  %38 = tail call i32 @ff_affine_transform(ptr noundef %25, ptr noundef %27, i32 noundef %29, i32 noundef %31, i32 noundef %33, i32 noundef %35, ptr noundef %37, i32 noundef %7, i32 noundef %8) #10
  %39 = icmp slt i32 %38, 0
  %indvars.iv.next = add nuw nsw i64 %indvars.iv, 1
  %exitcond.not = icmp eq i64 %indvars.iv.next, 3
  %or.cond = select i1 %39, i1 true, i1 %exitcond.not
  br i1 %or.cond, label %40, label %23, !llvm.loop !104

40:                                               ; preds = %23
  call void @llvm.lifetime.end.p0(i64 12, ptr nonnull %14) #10
  call void @llvm.lifetime.end.p0(i64 12, ptr nonnull %13) #10
  call void @llvm.lifetime.end.p0(i64 24, ptr nonnull %12) #10
  ret i32 %38
}